target datalayout = "e-m:e-p270:32:32-p271:32:32-p272:64:64-i64:64-i128:128-f80:128-n8:16:32:64-S128"
target triple = "x86_64-pc-linux-gnu"

; Function Attrs: nounwind uwtable
define dso_local ptr @zzlDeleteRangeByRank(ptr noundef %0, i32 noundef %1, i32 noundef %2, ptr noundef %3) #0 {
  %5 = alloca ptr, align 8
  %6 = alloca i32, align 4
  %7 = alloca i32, align 4
  %8 = alloca ptr, align 8
  %9 = alloca i32, align 4
  store ptr %0, ptr %5, align 8, !tbaa !11
  store i32 %1, ptr %6, align 4, !tbaa !5
  store i32 %2, ptr %7, align 4, !tbaa !5
  store ptr %3, ptr %8, align 8, !tbaa !108
  call void @llvm.lifetime.start.p0(i64 4, ptr %9) #12
  %10 = load i32, ptr %7, align 4, !tbaa !5
  %11 = load i32, ptr %6, align 4, !tbaa !5
  %12 = sub i32 %10, %11
  %13 = add i32 %12, 1
  store i32 %13, ptr %9, align 4, !tbaa !5
  %14 = load ptr, ptr %8, align 8, !tbaa !108
  %15 = icmp ne ptr %14, null
  br i1 %15, label %16, label %20

16:                                               ; preds = %4
  %17 = load i32, ptr %9, align 4, !tbaa !5
  %18 = zext i32 %17 to i64
  %19 = load ptr, ptr %8, align 8, !tbaa !108
  store i64 %18, ptr %19, align 8, !tbaa !31
  br label %20

20:                                               ; preds = %16, %4
  %21 = load ptr, ptr %5, align 8, !tbaa !11
  %22 = load i32, ptr %6, align 4, !tbaa !5
  %23 = sub i32 %22, 1
  %24 = mul i32 2, %23
  %25 = zext i32 %24 to i64
  %26 = load i32, ptr %9, align 4, !tbaa !5
  %27 = mul i32 2, %26
  %28 = zext i32 %27 to i64
  %29 = call ptr @lpDeleteRange(ptr noundef %21, i64 noundef %25, i64 noundef %28)
  store ptr %29, ptr %5, align 8, !tbaa !11
  %30 = load ptr, ptr %5, align 8, !tbaa !11
  call void @llvm.lifetime.end.p0(i64 4, ptr %9) #12
  ret ptr %30
}