; Function Attrs: nounwind uwtable
define dso_local ptr @zzlDeleteRangeByRank(ptr noundef %0, i32 noundef %1, i32 noundef %2, ptr noundef writeonly captures(address_is_null) %3) local_unnamed_addr #0 {
  %5 = sub i32 %2, %1
  %6 = add i32 %5, 1
  %.not = icmp eq ptr %3, null
  br i1 %.not, label %9, label %7

7:                                                ; preds = %4
  %8 = zext i32 %6 to i64
  store i64 %8, ptr %3, align 8, !tbaa !26
  br label %9

9:                                                ; preds = %7, %4
  %10 = shl i32 %1, 1
  %11 = add i32 %10, -2
  %12 = zext i32 %11 to i64
  %13 = shl i32 %6, 1
  %14 = zext i32 %13 to i64
  %15 = tail call ptr @lpDeleteRange(ptr noundef %0, i64 noundef %12, i64 noundef %14) #18
  ret ptr %15
}